; Function Attrs: mustprogress nofree norecurse nosync nounwind willreturn memory(read, inaccessiblemem: none) uwtable
define noundef i32 @_ZNK10open_spiel11negotiation16NegotiationState13EncodeIntegerERKSt6vectorIiSaIiEEi(ptr nocapture noundef nonnull readnone align 8 dereferenceable(208) %0, ptr nocapture noundef nonnull readonly align 8 dereferenceable(24) %1, i32 noundef %2) local_unnamed_addr #11 align 2 {
  %4 = load ptr, ptr %1, align 8
  %5 = getelementptr inbounds nuw i8, ptr %1, i64 8
  %6 = load ptr, ptr %5, align 8
  %.not9 = icmp eq ptr %4, %6
  br i1 %.not9, label %._crit_edge, label %.lr.ph

.lr.ph:                                           ; preds = %3, %.lr.ph
  %.011 = phi i32 [ %9, %.lr.ph ], [ 0, %3 ]
  %.sroa.06.010 = phi ptr [ %10, %.lr.ph ], [ %4, %3 ]
  %7 = load i32, ptr %.sroa.06.010, align 4
  %8 = mul nsw i32 %.011, %2
  %9 = add nsw i32 %7, %8
  %10 = getelementptr inbounds i8, ptr %.sroa.06.010, i64 4
  %.not = icmp eq ptr %10, %6
  br i1 %.not, label %._crit_edge, label %.lr.ph

._crit_edge:                                      ; preds = %.lr.ph, %3
  %.0.lcssa = phi i32 [ 0, %3 ], [ %9, %.lr.ph ]
  ret i32 %.0.lcssa
}